target datalayout = "e-m:e-p270:32:32-p271:32:32-p272:64:64-i64:64-i128:128-f80:128-n8:16:32:64-S128"
target triple = "x86_64-pc-linux-gnu"

%struct.Kit_Graph_t_ = type { i32, i32, i32, i32, ptr, %struct.Kit_Edge_t_ }
%struct.Kit_Edge_t_ = type { i32 }
%struct.Kit_Node_t_ = type { %struct.Kit_Edge_t_, %struct.Kit_Edge_t_, %union.anon, i32 }
%union.anon = type { ptr }

; Function Attrs: inlinehint nounwind uwtable
define internal ptr @Kit_GraphNode(ptr noundef %0, i32 noundef %1) #7 {
  %3 = alloca ptr, align 8
  %4 = alloca i32, align 4
  store ptr %0, ptr %3, align 8, !tbaa !7
  store i32 %1, ptr %4, align 4, !tbaa !3
  %5 = load ptr, ptr %3, align 8, !tbaa !7
  %6 = getelementptr inbounds nuw %struct.Kit_Graph_t_, ptr %5, i32 0, i32 4
  %7 = load ptr, ptr %6, align 8, !tbaa !16
  %8 = load i32, ptr %4, align 4, !tbaa !3
  %9 = sext i32 %8 to i64
  %10 = getelementptr inbounds %struct.Kit_Node_t_, ptr %7, i64 %9
  ret ptr %10
}

; Function Attrs: inlinehint nounwind uwtable
define internal i32 @Kit_GraphNodeInt(ptr noundef %0, ptr noundef %1) #7 {
  %3 = alloca ptr, align 8
  %4 = alloca ptr, align 8
  store ptr %0, ptr %3, align 8, !tbaa !7
  store ptr %1, ptr %4, align 8, !tbaa !18
  %5 = load ptr, ptr %4, align 8, !tbaa !18
  %6 = load ptr, ptr %3, align 8, !tbaa !7
  %7 = getelementptr inbounds nuw %struct.Kit_Graph_t_, ptr %6, i32 0, i32 4
  %8 = load ptr, ptr %7, align 8, !tbaa !16
  %9 = ptrtoint ptr %5 to i64
  %10 = ptrtoint ptr %8 to i64
  %11 = sub i64 %9, %10
  %12 = sdiv exact i64 %11, 24
  %13 = trunc i64 %12 to i32
  ret i32 %13
}

; Function Attrs: inlinehint nounwind uwtable
define internal ptr @Kit_GraphNodeFanin1(ptr noundef %0, ptr noundef %1) #7 {
  %3 = alloca ptr, align 8
  %4 = alloca ptr, align 8
  store ptr %0, ptr %3, align 8, !tbaa !7
  store ptr %1, ptr %4, align 8, !tbaa !18
  %5 = load ptr, ptr %3, align 8, !tbaa !7
  %6 = load ptr, ptr %4, align 8, !tbaa !18
  %7 = call i32 @Kit_GraphNodeIsVar(ptr noundef %5, ptr noundef %6)
  %8 = icmp ne i32 %7, 0
  br i1 %8, label %9, label %10

9:                                                ; preds = %2
  br label %18

10:                                               ; preds = %2
  %11 = load ptr, ptr %3, align 8, !tbaa !7
  %12 = load ptr, ptr %4, align 8, !tbaa !18
  %13 = getelementptr inbounds nuw %struct.Kit_Node_t_, ptr %12, i32 0, i32 1
  %14 = load i32, ptr %13, align 4
  %15 = lshr i32 %14, 1
  %16 = and i32 %15, 1073741823
  %17 = call ptr @Kit_GraphNode(ptr noundef %11, i32 noundef %16)
  br label %18

18:                                               ; preds = %10, %9
  %19 = phi ptr [ null, %9 ], [ %17, %10 ]
  ret ptr %19
}

; Function Attrs: inlinehint nounwind uwtable
define internal ptr @Kit_GraphNodeFanin0(ptr noundef %0, ptr noundef %1) #7 {
  %3 = alloca ptr, align 8
  %4 = alloca ptr, align 8
  store ptr %0, ptr %3, align 8, !tbaa !7
  store ptr %1, ptr %4, align 8, !tbaa !18
  %5 = load ptr, ptr %3, align 8, !tbaa !7
  %6 = load ptr, ptr %4, align 8, !tbaa !18
  %7 = call i32 @Kit_GraphNodeIsVar(ptr noundef %5, ptr noundef %6)
  %8 = icmp ne i32 %7, 0
  br i1 %8, label %9, label %10

9:                                                ; preds = %2
  br label %18

10:                                               ; preds = %2
  %11 = load ptr, ptr %3, align 8, !tbaa !7
  %12 = load ptr, ptr %4, align 8, !tbaa !18
  %13 = getelementptr inbounds nuw %struct.Kit_Node_t_, ptr %12, i32 0, i32 0
  %14 = load i32, ptr %13, align 8
  %15 = lshr i32 %14, 1
  %16 = and i32 %15, 1073741823
  %17 = call ptr @Kit_GraphNode(ptr noundef %11, i32 noundef %16)
  br label %18

18:                                               ; preds = %10, %9
  %19 = phi ptr [ null, %9 ], [ %17, %10 ]
  ret ptr %19
}

; Function Attrs: inlinehint nounwind uwtable
define internal i32 @Kit_GraphNodeIsVar(ptr noundef %0, ptr noundef %1) #7 {
  %3 = alloca ptr, align 8
  %4 = alloca ptr, align 8
  store ptr %0, ptr %3, align 8, !tbaa !7
  store ptr %1, ptr %4, align 8, !tbaa !18
  %5 = load ptr, ptr %3, align 8, !tbaa !7
  %6 = load ptr, ptr %4, align 8, !tbaa !18
  %7 = call i32 @Kit_GraphNodeInt(ptr noundef %5, ptr noundef %6)
  %8 = load ptr, ptr %3, align 8, !tbaa !7
  %9 = getelementptr inbounds nuw %struct.Kit_Graph_t_, ptr %8, i32 0, i32 1
  %10 = load i32, ptr %9, align 4, !tbaa !10
  %11 = icmp slt i32 %7, %10
  %12 = zext i1 %11 to i32
  ret i32 %12
}

; Function Attrs: nounwind uwtable
define i32 @Kit_GraphLeafDepth_rec(ptr noundef %0, ptr noundef %1, ptr noundef %2) #0 {
  %4 = alloca i32, align 4
  %5 = alloca ptr, align 8
  %6 = alloca ptr, align 8
  %7 = alloca ptr, align 8
  %8 = alloca i32, align 4
  %9 = alloca i32, align 4
  %10 = alloca i32, align 4
  %11 = alloca i32, align 4
  store ptr %0, ptr %5, align 8, !tbaa !7
  store ptr %1, ptr %6, align 8, !tbaa !18
  store ptr %2, ptr %7, align 8, !tbaa !18
  call void @llvm.lifetime.start.p0(i64 4, ptr %8) #13
  call void @llvm.lifetime.start.p0(i64 4, ptr %9) #13
  call void @llvm.lifetime.start.p0(i64 4, ptr %10) #13
  %12 = load ptr, ptr %6, align 8, !tbaa !18
  %13 = load ptr, ptr %7, align 8, !tbaa !18
  %14 = icmp eq ptr %12, %13
  br i1 %14, label %15, label %16

15:                                               ; preds = %3
  store i32 0, ptr %4, align 4
  store i32 1, ptr %11, align 4
  br label %53

16:                                               ; preds = %3
  %17 = load ptr, ptr %5, align 8, !tbaa !7
  %18 = load ptr, ptr %6, align 8, !tbaa !18
  %19 = call i32 @Kit_GraphNodeIsVar(ptr noundef %17, ptr noundef %18)
  %20 = icmp ne i32 %19, 0
  br i1 %20, label %21, label %22

21:                                               ; preds = %16
  store i32 -100, ptr %4, align 4
  store i32 1, ptr %11, align 4
  br label %53

22:                                               ; preds = %16
  %23 = load ptr, ptr %5, align 8, !tbaa !7
  %24 = load ptr, ptr %5, align 8, !tbaa !7
  %25 = load ptr, ptr %6, align 8, !tbaa !18
  %26 = call ptr @Kit_GraphNodeFanin0(ptr noundef %24, ptr noundef %25)
  %27 = load ptr, ptr %7, align 8, !tbaa !18
  %28 = call i32 @Kit_GraphLeafDepth_rec(ptr noundef %23, ptr noundef %26, ptr noundef %27)
  store i32 %28, ptr %8, align 4, !tbaa !3
  %29 = load ptr, ptr %5, align 8, !tbaa !7
  %30 = load ptr, ptr %5, align 8, !tbaa !7
  %31 = load ptr, ptr %6, align 8, !tbaa !18
  %32 = call ptr @Kit_GraphNodeFanin1(ptr noundef %30, ptr noundef %31)
  %33 = load ptr, ptr %7, align 8, !tbaa !18
  %34 = call i32 @Kit_GraphLeafDepth_rec(ptr noundef %29, ptr noundef %32, ptr noundef %33)
  store i32 %34, ptr %9, align 4, !tbaa !3
  %35 = load i32, ptr %8, align 4, !tbaa !3
  %36 = load i32, ptr %9, align 4, !tbaa !3
  %37 = icmp sgt i32 %35, %36
  br i1 %37, label %38, label %40

38:                                               ; preds = %22
  %39 = load i32, ptr %8, align 4, !tbaa !3
  br label %42

40:                                               ; preds = %22
  %41 = load i32, ptr %9, align 4, !tbaa !3
  br label %42

42:                                               ; preds = %40, %38
  %43 = phi i32 [ %39, %38 ], [ %41, %40 ]
  store i32 %43, ptr %10, align 4, !tbaa !3
  %44 = load i32, ptr %10, align 4, !tbaa !3
  %45 = icmp eq i32 %44, -100
  br i1 %45, label %46, label %47

46:                                               ; preds = %42
  br label %50

47:                                               ; preds = %42
  %48 = load i32, ptr %10, align 4, !tbaa !3
  %49 = add nsw i32 %48, 1
  br label %50

50:                                               ; preds = %47, %46
  %51 = phi i32 [ -100, %46 ], [ %49, %47 ]
  store i32 %51, ptr %10, align 4, !tbaa !3
  %52 = load i32, ptr %10, align 4, !tbaa !3
  store i32 %52, ptr %4, align 4
  store i32 1, ptr %11, align 4
  br label %53

53:                                               ; preds = %50, %21, %15
  call void @llvm.lifetime.end.p0(i64 4, ptr %10) #13
  call void @llvm.lifetime.end.p0(i64 4, ptr %9) #13
  call void @llvm.lifetime.end.p0(i64 4, ptr %8) #13
  %54 = load i32, ptr %4, align 4
  ret i32 %54
}