; Function Attrs: nofree nosync nounwind memory(read, inaccessiblemem: none) uwtable
define range(i32 -2147483646, -2147483648) i32 @Kit_GraphLeafDepth_rec(ptr noundef %0, ptr noundef %1, ptr noundef %2) local_unnamed_addr #10 {
  %4 = icmp eq ptr %1, %2
  br i1 %4, label %common.ret27, label %5

5:                                                ; preds = %3
  %6 = getelementptr i8, ptr %0, i64 4
  %.val = load i32, ptr %6, align 4, !tbaa !3
  %7 = getelementptr i8, ptr %0, i64 16
  %.val21 = load ptr, ptr %7, align 8, !tbaa !13
  %8 = ptrtoint ptr %1 to i64
  %9 = ptrtoint ptr %.val21 to i64
  %10 = sub i64 %8, %9
  %11 = sdiv exact i64 %10, 24
  %12 = trunc i64 %11 to i32
  %.not = icmp sgt i32 %.val, %12
  br i1 %.not, label %common.ret27, label %Kit_GraphNodeFanin1.exit

common.ret27:                                     ; preds = %5, %3, %Kit_GraphNodeFanin1.exit
  %common.ret27.op = phi i32 [ %29, %Kit_GraphNodeFanin1.exit ], [ 0, %3 ], [ -100, %5 ]
  ret i32 %common.ret27.op

Kit_GraphNodeFanin1.exit:                         ; preds = %5
  %13 = load i32, ptr %1, align 8
  %14 = lshr i32 %13, 1
  %15 = and i32 %14, 1073741823
  %16 = zext nneg i32 %15 to i64
  %17 = getelementptr inbounds nuw %struct.Kit_Node_t_, ptr %.val21, i64 %16
  %18 = tail call i32 @Kit_GraphLeafDepth_rec(ptr noundef nonnull %0, ptr noundef %17, ptr noundef %2)
  %19 = getelementptr inbounds nuw i8, ptr %1, i64 4
  %20 = load i32, ptr %19, align 4
  %21 = lshr i32 %20, 1
  %22 = and i32 %21, 1073741823
  %23 = zext nneg i32 %22 to i64
  %24 = getelementptr inbounds nuw %struct.Kit_Node_t_, ptr %.val21, i64 %23
  %25 = tail call i32 @Kit_GraphLeafDepth_rec(ptr noundef nonnull %0, ptr noundef %24, ptr noundef %2)
  %26 = tail call i32 @llvm.smax.i32(i32 %18, i32 %25)
  %27 = icmp eq i32 %26, -100
  %28 = add nsw i32 %26, 1
  %29 = select i1 %27, i32 -100, i32 %28
  br label %common.ret27
}